; Function Attrs: inlinehint nounwind sspstrong uwtable
define internal fastcc i32 @obj2uid0(i64 noundef %0) unnamed_addr #6 {
  %2 = alloca i64, align 8
  call void @llvm.lifetime.start.p0(i64 8, ptr nonnull %2) #27
  store i64 0, ptr %2, align 8, !tbaa !43
  %3 = call fastcc i32 @obj2uid(i64 noundef %0, ptr noundef %2)
  %4 = load i64, ptr %2, align 8, !tbaa !43
  %.not = icmp eq i64 %4, 0
  br i1 %.not, label %7, label %5

5:                                                ; preds = %1
  %6 = tail call i64 @rb_str_resize(i64 noundef %4, i64 noundef 0) #27
  br label %7

7:                                                ; preds = %1, %5
  call void @llvm.lifetime.end.p0(i64 8, ptr nonnull %2) #27
  ret i32 %3
}